target datalayout = "e-m:e-p270:32:32-p271:32:32-p272:64:64-i64:64-i128:128-f80:128-n8:16:32:64-S128"
target triple = "x86_64-pc-linux-gnu"

%struct.Sbd_Str_t_ = type { i32, i32, [10 x i32], i64 }

; Function Attrs: nounwind uwtable
define internal i32 @Abc_Var2Lit(i32 noundef %0, i32 noundef %1) #0 {
  %3 = alloca i32, align 4
  %4 = alloca i32, align 4
  store i32 %0, ptr %3, align 4
  store i32 %1, ptr %4, align 4
  %5 = load i32, ptr %3, align 4
  %6 = load i32, ptr %3, align 4
  %7 = add nsw i32 %5, %6
  %8 = load i32, ptr %4, align 4
  %9 = add nsw i32 %7, %8
  ret i32 %9
}

; Function Attrs: nounwind uwtable
define i32 @Sbd_ProblemAddClauses(ptr noundef %0, i32 noundef %1, i32 noundef %2, ptr noundef %3, ptr noundef %4) #0 {
  %6 = alloca i32, align 4
  %7 = alloca ptr, align 8
  %8 = alloca i32, align 4
  %9 = alloca i32, align 4
  %10 = alloca ptr, align 8
  %11 = alloca ptr, align 8
  %12 = alloca ptr, align 8
  %13 = alloca i32, align 4
  %14 = alloca i32, align 4
  %15 = alloca i32, align 4
  %16 = alloca i32, align 4
  %17 = alloca i32, align 4
  %18 = alloca i32, align 4
  %19 = alloca [6 x i32], align 16
  %20 = alloca i32, align 4
  store ptr %0, ptr %7, align 8
  store i32 %1, ptr %8, align 4
  store i32 %2, ptr %9, align 4
  store ptr %3, ptr %10, align 8
  store ptr %4, ptr %11, align 8
  %21 = load i32, ptr %8, align 4
  store i32 %21, ptr %13, align 4
  %22 = load i32, ptr %8, align 4
  %23 = load i32, ptr %9, align 4
  %24 = add nsw i32 %22, %23
  store i32 %24, ptr %14, align 4
  %25 = load ptr, ptr %11, align 8
  store ptr %25, ptr %12, align 8
  br label %26

26:                                               ; preds = %196, %5
  %27 = load ptr, ptr %12, align 8
  %28 = load ptr, ptr %11, align 8
  %29 = load i32, ptr %9, align 4
  %30 = sext i32 %29 to i64
  %31 = getelementptr inbounds %struct.Sbd_Str_t_, ptr %28, i64 %30
  %32 = icmp ult ptr %27, %31
  br i1 %32, label %33, label %201

33:                                               ; preds = %26
  %34 = load ptr, ptr %12, align 8
  %35 = getelementptr inbounds %struct.Sbd_Str_t_, ptr %34, i32 0, i32 0
  %36 = load i32, ptr %35, align 8
  %37 = icmp ne i32 %36, 0
  br i1 %37, label %38, label %133

38:                                               ; preds = %33
  %39 = load ptr, ptr %12, align 8
  %40 = getelementptr inbounds %struct.Sbd_Str_t_, ptr %39, i32 0, i32 1
  %41 = load i32, ptr %40, align 4
  %42 = shl i32 1, %41
  store i32 %42, ptr %20, align 4
  store i32 0, ptr %15, align 4
  br label %43

43:                                               ; preds = %127, %38
  %44 = load i32, ptr %15, align 4
  %45 = load i32, ptr %20, align 4
  %46 = icmp slt i32 %44, %45
  br i1 %46, label %47, label %132

47:                                               ; preds = %43
  store i32 0, ptr %16, align 4
  br label %48

48:                                               ; preds = %73, %47
  %49 = load i32, ptr %16, align 4
  %50 = load ptr, ptr %12, align 8
  %51 = getelementptr inbounds %struct.Sbd_Str_t_, ptr %50, i32 0, i32 1
  %52 = load i32, ptr %51, align 4
  %53 = icmp slt i32 %49, %52
  br i1 %53, label %54, label %76

54:                                               ; preds = %48
  %55 = load ptr, ptr %10, align 8
  %56 = load ptr, ptr %12, align 8
  %57 = getelementptr inbounds %struct.Sbd_Str_t_, ptr %56, i32 0, i32 2
  %58 = load i32, ptr %16, align 4
  %59 = sext i32 %58 to i64
  %60 = getelementptr inbounds [10 x i32], ptr %57, i64 0, i64 %59
  %61 = load i32, ptr %60, align 4
  %62 = sext i32 %61 to i64
  %63 = getelementptr inbounds i32, ptr %55, i64 %62
  %64 = load i32, ptr %63, align 4
  %65 = load i32, ptr %15, align 4
  %66 = load i32, ptr %16, align 4
  %67 = ashr i32 %65, %66
  %68 = and i32 %67, 1
  %69 = call i32 @Abc_Var2Lit(i32 noundef %64, i32 noundef %68)
  %70 = load i32, ptr %16, align 4
  %71 = sext i32 %70 to i64
  %72 = getelementptr inbounds [6 x i32], ptr %19, i64 0, i64 %71
  store i32 %69, ptr %72, align 4
  br label %73

73:                                               ; preds = %54
  %74 = load i32, ptr %16, align 4
  %75 = add nsw i32 %74, 1
  store i32 %75, ptr %16, align 4
  br label %48, !llvm.loop !6

76:                                               ; preds = %48
  store i32 0, ptr %17, align 4
  br label %77

77:                                               ; preds = %123, %76
  %78 = load i32, ptr %17, align 4
  %79 = icmp slt i32 %78, 2
  br i1 %79, label %80, label %126

80:                                               ; preds = %77
  %81 = load ptr, ptr %10, align 8
  %82 = load i32, ptr %14, align 4
  %83 = sext i32 %82 to i64
  %84 = getelementptr inbounds i32, ptr %81, i64 %83
  %85 = load i32, ptr %84, align 4
  %86 = load i32, ptr %17, align 4
  %87 = call i32 @Abc_Var2Lit(i32 noundef %85, i32 noundef %86)
  %88 = load ptr, ptr %12, align 8
  %89 = getelementptr inbounds %struct.Sbd_Str_t_, ptr %88, i32 0, i32 1
  %90 = load i32, ptr %89, align 4
  %91 = sext i32 %90 to i64
  %92 = getelementptr inbounds [6 x i32], ptr %19, i64 0, i64 %91
  store i32 %87, ptr %92, align 4
  %93 = load ptr, ptr %10, align 8
  %94 = load i32, ptr %13, align 4
  %95 = sext i32 %94 to i64
  %96 = getelementptr inbounds i32, ptr %93, i64 %95
  %97 = load i32, ptr %96, align 4
  %98 = load i32, ptr %17, align 4
  %99 = icmp ne i32 %98, 0
  %100 = xor i1 %99, true
  %101 = zext i1 %100 to i32
  %102 = call i32 @Abc_Var2Lit(i32 noundef %97, i32 noundef %101)
  %103 = load ptr, ptr %12, align 8
  %104 = getelementptr inbounds %struct.Sbd_Str_t_, ptr %103, i32 0, i32 1
  %105 = load i32, ptr %104, align 4
  %106 = add nsw i32 %105, 1
  %107 = sext i32 %106 to i64
  %108 = getelementptr inbounds [6 x i32], ptr %19, i64 0, i64 %107
  store i32 %102, ptr %108, align 4
  %109 = load ptr, ptr %7, align 8
  %110 = getelementptr inbounds [6 x i32], ptr %19, i64 0, i64 0
  %111 = getelementptr inbounds [6 x i32], ptr %19, i64 0, i64 0
  %112 = load ptr, ptr %12, align 8
  %113 = getelementptr inbounds %struct.Sbd_Str_t_, ptr %112, i32 0, i32 1
  %114 = load i32, ptr %113, align 4
  %115 = sext i32 %114 to i64
  %116 = getelementptr inbounds i32, ptr %111, i64 %115
  %117 = getelementptr inbounds i32, ptr %116, i64 2
  %118 = call i32 @sat_solver_addclause(ptr noundef %109, ptr noundef %110, ptr noundef %117)
  store i32 %118, ptr %18, align 4
  %119 = load i32, ptr %18, align 4
  %120 = icmp ne i32 %119, 0
  br i1 %120, label %122, label %121

121:                                              ; preds = %80
  store i32 0, ptr %6, align 4
  br label %202

122:                                              ; preds = %80
  br label %123

123:                                              ; preds = %122
  %124 = load i32, ptr %17, align 4
  %125 = add nsw i32 %124, 1
  store i32 %125, ptr %17, align 4
  br label %77, !llvm.loop !7

126:                                              ; preds = %77
  br label %127

127:                                              ; preds = %126
  %128 = load i32, ptr %15, align 4
  %129 = add nsw i32 %128, 1
  store i32 %129, ptr %15, align 4
  %130 = load i32, ptr %14, align 4
  %131 = add nsw i32 %130, 1
  store i32 %131, ptr %14, align 4
  br label %43, !llvm.loop !8

132:                                              ; preds = %43
  br label %195

133:                                              ; preds = %33
  store i32 0, ptr %16, align 4
  br label %134

134:                                              ; preds = %189, %133
  %135 = load i32, ptr %16, align 4
  %136 = load ptr, ptr %12, align 8
  %137 = getelementptr inbounds %struct.Sbd_Str_t_, ptr %136, i32 0, i32 1
  %138 = load i32, ptr %137, align 4
  %139 = icmp slt i32 %135, %138
  br i1 %139, label %140, label %194

140:                                              ; preds = %134
  store i32 0, ptr %17, align 4
  br label %141

141:                                              ; preds = %185, %140
  %142 = load i32, ptr %17, align 4
  %143 = icmp slt i32 %142, 2
  br i1 %143, label %144, label %188

144:                                              ; preds = %141
  %145 = load ptr, ptr %10, align 8
  %146 = load i32, ptr %14, align 4
  %147 = sext i32 %146 to i64
  %148 = getelementptr inbounds i32, ptr %145, i64 %147
  %149 = load i32, ptr %148, align 4
  %150 = call i32 @Abc_Var2Lit(i32 noundef %149, i32 noundef 1)
  %151 = getelementptr inbounds [6 x i32], ptr %19, i64 0, i64 0
  store i32 %150, ptr %151, align 16
  %152 = load ptr, ptr %10, align 8
  %153 = load i32, ptr %13, align 4
  %154 = sext i32 %153 to i64
  %155 = getelementptr inbounds i32, ptr %152, i64 %154
  %156 = load i32, ptr %155, align 4
  %157 = load i32, ptr %17, align 4
  %158 = call i32 @Abc_Var2Lit(i32 noundef %156, i32 noundef %157)
  %159 = getelementptr inbounds [6 x i32], ptr %19, i64 0, i64 1
  store i32 %158, ptr %159, align 4
  %160 = load ptr, ptr %10, align 8
  %161 = load ptr, ptr %12, align 8
  %162 = getelementptr inbounds %struct.Sbd_Str_t_, ptr %161, i32 0, i32 2
  %163 = load i32, ptr %16, align 4
  %164 = sext i32 %163 to i64
  %165 = getelementptr inbounds [10 x i32], ptr %162, i64 0, i64 %164
  %166 = load i32, ptr %165, align 4
  %167 = sext i32 %166 to i64
  %168 = getelementptr inbounds i32, ptr %160, i64 %167
  %169 = load i32, ptr %168, align 4
  %170 = load i32, ptr %17, align 4
  %171 = icmp ne i32 %170, 0
  %172 = xor i1 %171, true
  %173 = zext i1 %172 to i32
  %174 = call i32 @Abc_Var2Lit(i32 noundef %169, i32 noundef %173)
  %175 = getelementptr inbounds [6 x i32], ptr %19, i64 0, i64 2
  store i32 %174, ptr %175, align 8
  %176 = load ptr, ptr %7, align 8
  %177 = getelementptr inbounds [6 x i32], ptr %19, i64 0, i64 0
  %178 = getelementptr inbounds [6 x i32], ptr %19, i64 0, i64 0
  %179 = getelementptr inbounds i32, ptr %178, i64 3
  %180 = call i32 @sat_solver_addclause(ptr noundef %176, ptr noundef %177, ptr noundef %179)
  store i32 %180, ptr %18, align 4
  %181 = load i32, ptr %18, align 4
  %182 = icmp ne i32 %181, 0
  br i1 %182, label %184, label %183

183:                                              ; preds = %144
  store i32 0, ptr %6, align 4
  br label %202

184:                                              ; preds = %144
  br label %185

185:                                              ; preds = %184
  %186 = load i32, ptr %17, align 4
  %187 = add nsw i32 %186, 1
  store i32 %187, ptr %17, align 4
  br label %141, !llvm.loop !9

188:                                              ; preds = %141
  br label %189

189:                                              ; preds = %188
  %190 = load i32, ptr %16, align 4
  %191 = add nsw i32 %190, 1
  store i32 %191, ptr %16, align 4
  %192 = load i32, ptr %14, align 4
  %193 = add nsw i32 %192, 1
  store i32 %193, ptr %14, align 4
  br label %134, !llvm.loop !10

194:                                              ; preds = %134
  br label %195

195:                                              ; preds = %194, %132
  br label %196

196:                                              ; preds = %195
  %197 = load ptr, ptr %12, align 8
  %198 = getelementptr inbounds %struct.Sbd_Str_t_, ptr %197, i32 1
  store ptr %198, ptr %12, align 8
  %199 = load i32, ptr %13, align 4
  %200 = add nsw i32 %199, 1
  store i32 %200, ptr %13, align 4
  br label %26, !llvm.loop !11

201:                                              ; preds = %26
  store i32 1, ptr %6, align 4
  br label %202

202:                                              ; preds = %201, %183, %121
  %203 = load i32, ptr %6, align 4
  ret i32 %203
}