; Function Attrs: nounwind uwtable
define range(i32 0, 2) i32 @Sbd_ProblemAddClauses(ptr noundef %0, i32 noundef %1, i32 noundef %2, ptr noundef readonly captures(none) %3, ptr noundef readonly %4) local_unnamed_addr #1 {
  %6 = alloca [6 x i32], align 16
  %7 = sext i32 %2 to i64
  %8 = getelementptr inbounds %struct.Sbd_Str_t_, ptr %4, i64 %7
  %9 = icmp sgt i32 %2, 0
  br i1 %9, label %.lr.ph88, label %.loopexit

.lr.ph88:                                         ; preds = %5
  %10 = add nsw i32 %2, %1
  %invariant.gep = getelementptr inbounds nuw i8, ptr %6, i64 8
  %11 = getelementptr inbounds nuw i8, ptr %6, i64 4
  %12 = getelementptr inbounds nuw i8, ptr %6, i64 12
  %13 = sext i32 %1 to i64
  br label %14

14:                                               ; preds = %.lr.ph88, %.loopexit70
  %indvars.iv106 = phi i64 [ %13, %.lr.ph88 ], [ %indvars.iv.next107, %.loopexit70 ]
  %.05887 = phi i32 [ %10, %.lr.ph88 ], [ %.3, %.loopexit70 ]
  %.06183 = phi ptr [ %4, %.lr.ph88 ], [ %85, %.loopexit70 ]
  %15 = load i32, ptr %.06183, align 8
  %.not = icmp eq i32 %15, 0
  %16 = getelementptr inbounds nuw i8, ptr %.06183, i64 4
  %17 = load i32, ptr %16, align 4
  br i1 %.not, label %.preheader69, label %22

.preheader69:                                     ; preds = %14
  %18 = icmp sgt i32 %17, 0
  br i1 %18, label %.preheader.lr.ph, label %.loopexit70

.preheader.lr.ph:                                 ; preds = %.preheader69
  %19 = getelementptr inbounds i32, ptr %3, i64 %indvars.iv106
  %20 = getelementptr inbounds nuw i8, ptr %.06183, i64 8
  %21 = sext i32 %.05887 to i64
  br label %.preheader

22:                                               ; preds = %14
  %.not89 = icmp eq i32 %17, 31
  br i1 %.not89, label %.loopexit70, label %.preheader68.lr.ph

.preheader68.lr.ph:                               ; preds = %22
  %23 = shl nuw nsw i32 1, %17
  %24 = getelementptr inbounds nuw i8, ptr %.06183, i64 8
  %25 = getelementptr inbounds i32, ptr %3, i64 %indvars.iv106
  %26 = sext i32 %.05887 to i64
  br label %.preheader68

.preheader68:                                     ; preds = %.preheader68.lr.ph, %58
  %indvars.iv95 = phi i64 [ %26, %.preheader68.lr.ph ], [ %indvars.iv.next96, %58 ]
  %.05778 = phi i32 [ 0, %.preheader68.lr.ph ], [ %59, %58 ]
  %27 = load i32, ptr %16, align 4
  %28 = icmp sgt i32 %27, 0
  br i1 %28, label %.lr.ph.preheader, label %.preheader66

.lr.ph.preheader:                                 ; preds = %.preheader68
  %wide.trip.count = zext nneg i32 %27 to i64
  br label %.lr.ph

.preheader66:                                     ; preds = %.lr.ph, %.preheader68
  %29 = getelementptr inbounds i32, ptr %3, i64 %indvars.iv95
  br label %42

.lr.ph:                                           ; preds = %.lr.ph.preheader, %.lr.ph
  %indvars.iv = phi i64 [ 0, %.lr.ph.preheader ], [ %indvars.iv.next, %.lr.ph ]
  %30 = getelementptr inbounds nuw [10 x i32], ptr %24, i64 0, i64 %indvars.iv
  %31 = load i32, ptr %30, align 4
  %32 = sext i32 %31 to i64
  %33 = getelementptr inbounds i32, ptr %3, i64 %32
  %34 = load i32, ptr %33, align 4
  %35 = trunc nuw nsw i64 %indvars.iv to i32
  %36 = lshr i32 %.05778, %35
  %37 = and i32 %36, 1
  %38 = shl nsw i32 %34, 1
  %39 = or disjoint i32 %38, %37
  %40 = getelementptr inbounds nuw [6 x i32], ptr %6, i64 0, i64 %indvars.iv
  store i32 %39, ptr %40, align 4
  %indvars.iv.next = add nuw nsw i64 %indvars.iv, 1
  %exitcond.not = icmp eq i64 %indvars.iv.next, %wide.trip.count
  br i1 %exitcond.not, label %.preheader66, label %.lr.ph, !llvm.loop !6

41:                                               ; preds = %42
  br i1 %43, label %42, label %58, !llvm.loop !7

42:                                               ; preds = %.preheader66, %41
  %43 = phi i1 [ true, %.preheader66 ], [ false, %41 ]
  %.05476 = phi i32 [ 0, %.preheader66 ], [ 1, %41 ]
  %44 = load i32, ptr %29, align 4
  %45 = shl nsw i32 %44, 1
  %46 = or disjoint i32 %45, %.05476
  %47 = load i32, ptr %16, align 4
  %48 = sext i32 %47 to i64
  %49 = getelementptr inbounds [6 x i32], ptr %6, i64 0, i64 %48
  store i32 %46, ptr %49, align 4
  %50 = load i32, ptr %25, align 4
  %51 = shl nsw i32 %50, 1
  %52 = or disjoint i32 %51, %.05476
  %53 = xor i32 %52, 1
  %54 = add nsw i32 %47, 1
  %55 = sext i32 %54 to i64
  %56 = getelementptr inbounds [6 x i32], ptr %6, i64 0, i64 %55
  store i32 %53, ptr %56, align 4
  %gep = getelementptr i32, ptr %invariant.gep, i64 %48
  %57 = call i32 @sat_solver_addclause(ptr noundef %0, ptr noundef nonnull %6, ptr noundef nonnull %gep) #15
  %.not65 = icmp eq i32 %57, 0
  br i1 %.not65, label %.loopexit, label %41

58:                                               ; preds = %41
  %59 = add nuw nsw i32 %.05778, 1
  %indvars.iv.next96 = add nsw i64 %indvars.iv95, 1
  %exitcond98.not = icmp eq i32 %59, %23
  br i1 %exitcond98.not, label %.loopexit70.loopexit91, label %.preheader68, !llvm.loop !8

.preheader:                                       ; preds = %.preheader.lr.ph, %79
  %indvars.iv101 = phi i64 [ %21, %.preheader.lr.ph ], [ %indvars.iv.next102, %79 ]
  %indvars.iv99 = phi i64 [ 0, %.preheader.lr.ph ], [ %indvars.iv.next100, %79 ]
  %60 = getelementptr inbounds i32, ptr %3, i64 %indvars.iv101
  %61 = getelementptr inbounds nuw [10 x i32], ptr %20, i64 0, i64 %indvars.iv99
  br label %63

62:                                               ; preds = %63
  br i1 %64, label %63, label %79, !llvm.loop !9

63:                                               ; preds = %.preheader, %62
  %64 = phi i1 [ true, %.preheader ], [ false, %62 ]
  %.179 = phi i32 [ 0, %.preheader ], [ 1, %62 ]
  %65 = load i32, ptr %60, align 4
  %66 = shl nsw i32 %65, 1
  %67 = or disjoint i32 %66, 1
  store i32 %67, ptr %6, align 16
  %68 = load i32, ptr %19, align 4
  %69 = shl nsw i32 %68, 1
  %70 = or disjoint i32 %69, %.179
  store i32 %70, ptr %11, align 4
  %71 = load i32, ptr %61, align 4
  %72 = sext i32 %71 to i64
  %73 = getelementptr inbounds i32, ptr %3, i64 %72
  %74 = load i32, ptr %73, align 4
  %75 = shl nsw i32 %74, 1
  %76 = or disjoint i32 %75, %.179
  %77 = xor i32 %76, 1
  store i32 %77, ptr %invariant.gep, align 8
  %78 = call i32 @sat_solver_addclause(ptr noundef %0, ptr noundef nonnull %6, ptr noundef nonnull %12) #15
  %.not63 = icmp eq i32 %78, 0
  br i1 %.not63, label %.loopexit, label %62

79:                                               ; preds = %62
  %indvars.iv.next100 = add nuw nsw i64 %indvars.iv99, 1
  %indvars.iv.next102 = add nsw i64 %indvars.iv101, 1
  %80 = load i32, ptr %16, align 4
  %81 = sext i32 %80 to i64
  %82 = icmp slt i64 %indvars.iv.next100, %81
  br i1 %82, label %.preheader, label %.loopexit70.loopexit, !llvm.loop !10

.loopexit70.loopexit:                             ; preds = %79
  %83 = trunc nsw i64 %indvars.iv.next102 to i32
  br label %.loopexit70

.loopexit70.loopexit91:                           ; preds = %58
  %84 = trunc nsw i64 %indvars.iv.next96 to i32
  br label %.loopexit70

.loopexit70:                                      ; preds = %.loopexit70.loopexit91, %.loopexit70.loopexit, %22, %.preheader69
  %.3 = phi i32 [ %.05887, %.preheader69 ], [ %.05887, %22 ], [ %83, %.loopexit70.loopexit ], [ %84, %.loopexit70.loopexit91 ]
  %85 = getelementptr inbounds nuw i8, ptr %.06183, i64 56
  %indvars.iv.next107 = add nsw i64 %indvars.iv106, 1
  %86 = icmp ult ptr %85, %8
  br i1 %86, label %14, label %.loopexit, !llvm.loop !11

.loopexit:                                        ; preds = %.loopexit70, %42, %63, %5
  %.0 = phi i32 [ 1, %5 ], [ 0, %63 ], [ 0, %42 ], [ 1, %.loopexit70 ]
  ret i32 %.0
}